target datalayout = "e-m:e-p270:32:32-p271:32:32-p272:64:64-i64:64-i128:128-f80:128-n8:16:32:64-S128"
target triple = "x86_64-pc-linux-gnu"

@.str.44 = private unnamed_addr constant [16 x i8] c"IDAGetLastOrder\00", align 1
@.str.45 = private unnamed_addr constant [15 x i8] c"IDAGetNumSteps\00", align 1
@.str.46 = private unnamed_addr constant [25 x i8] c"IDAGetNumNonlinSolvIters\00", align 1
@.str.47 = private unnamed_addr constant [18 x i8] c"IDAGetNumResEvals\00", align 1
@.str.48 = private unnamed_addr constant [15 x i8] c"IDAGetLastStep\00", align 1
@.str.49 = private unnamed_addr constant [21 x i8] c"IDAGetNumJtimesEvals\00", align 1
@.str.50 = private unnamed_addr constant [18 x i8] c"IDAGetNumLinIters\00", align 1
@.str.51 = private unnamed_addr constant [21 x i8] c"IDAGetNumLinResEvals\00", align 1
@.str.52 = private unnamed_addr constant [19 x i8] c"IDAGetNumPrecEvals\00", align 1
@.str.53 = private unnamed_addr constant [20 x i8] c"IDAGetNumPrecSolves\00", align 1
@.str.54 = private unnamed_addr constant [67 x i8] c" %5.2f %13.5e  %d  %3ld  %3ld  %3ld  %4ld  %4ld  %9.2e  %3ld %3ld\0A\00", align 1
@stderr = external global ptr, align 8
@.str.55 = private unnamed_addr constant [55 x i8] c"\0ASUNDIALS_ERROR: %s() failed - returned NULL pointer\0A\0A\00", align 1
@.str.56 = private unnamed_addr constant [48 x i8] c"\0ASUNDIALS_ERROR: %s() failed with retval = %d\0A\0A\00", align 1
@.str.57 = private unnamed_addr constant [53 x i8] c"\0AMEMORY_ERROR: %s() failed - returned NULL pointer\0A\0A\00", align 1

; Function Attrs: nounwind uwtable
define internal i32 @check_retval(ptr noundef %0, ptr noundef %1, i32 noundef %2) #0 {
  %4 = alloca i32, align 4
  %5 = alloca ptr, align 8
  %6 = alloca ptr, align 8
  %7 = alloca i32, align 4
  %8 = alloca ptr, align 8
  %9 = alloca i32, align 4
  store ptr %0, ptr %5, align 8, !tbaa !11
  store ptr %1, ptr %6, align 8, !tbaa !16
  store i32 %2, ptr %7, align 4, !tbaa !4
  call void @llvm.lifetime.start.p0(i64 8, ptr %8) #7
  %10 = load i32, ptr %7, align 4, !tbaa !4
  %11 = icmp eq i32 %10, 0
  br i1 %11, label %12, label %19

12:                                               ; preds = %3
  %13 = load ptr, ptr %5, align 8, !tbaa !11
  %14 = icmp eq ptr %13, null
  br i1 %14, label %15, label %19

15:                                               ; preds = %12
  %16 = load ptr, ptr @stderr, align 8, !tbaa !29
  %17 = load ptr, ptr %6, align 8, !tbaa !16
  %18 = call i32 (ptr, ptr, ...) @fprintf(ptr noundef %16, ptr noundef @.str.55, ptr noundef %17) #7
  store i32 1, ptr %4, align 4
  store i32 1, ptr %9, align 4
  br label %47

19:                                               ; preds = %12, %3
  %20 = load i32, ptr %7, align 4, !tbaa !4
  %21 = icmp eq i32 %20, 1
  br i1 %21, label %22, label %34

22:                                               ; preds = %19
  %23 = load ptr, ptr %5, align 8, !tbaa !11
  store ptr %23, ptr %8, align 8, !tbaa !31
  %24 = load ptr, ptr %8, align 8, !tbaa !31
  %25 = load i32, ptr %24, align 4, !tbaa !4
  %26 = icmp slt i32 %25, 0
  br i1 %26, label %27, label %33

27:                                               ; preds = %22
  %28 = load ptr, ptr @stderr, align 8, !tbaa !29
  %29 = load ptr, ptr %6, align 8, !tbaa !16
  %30 = load ptr, ptr %8, align 8, !tbaa !31
  %31 = load i32, ptr %30, align 4, !tbaa !4
  %32 = call i32 (ptr, ptr, ...) @fprintf(ptr noundef %28, ptr noundef @.str.56, ptr noundef %29, i32 noundef %31) #7
  store i32 1, ptr %4, align 4
  store i32 1, ptr %9, align 4
  br label %47

33:                                               ; preds = %22
  br label %45

34:                                               ; preds = %19
  %35 = load i32, ptr %7, align 4, !tbaa !4
  %36 = icmp eq i32 %35, 2
  br i1 %36, label %37, label %44

37:                                               ; preds = %34
  %38 = load ptr, ptr %5, align 8, !tbaa !11
  %39 = icmp eq ptr %38, null
  br i1 %39, label %40, label %44

40:                                               ; preds = %37
  %41 = load ptr, ptr @stderr, align 8, !tbaa !29
  %42 = load ptr, ptr %6, align 8, !tbaa !16
  %43 = call i32 (ptr, ptr, ...) @fprintf(ptr noundef %41, ptr noundef @.str.57, ptr noundef %42) #7
  store i32 1, ptr %4, align 4
  store i32 1, ptr %9, align 4
  br label %47

44:                                               ; preds = %37, %34
  br label %45

45:                                               ; preds = %44, %33
  br label %46

46:                                               ; preds = %45
  store i32 0, ptr %4, align 4
  store i32 1, ptr %9, align 4
  br label %47

47:                                               ; preds = %46, %40, %27, %15
  call void @llvm.lifetime.end.p0(i64 8, ptr %8) #7
  %48 = load i32, ptr %4, align 4
  ret i32 %48
}

; Function Attrs: nounwind uwtable
define internal void @PrintOutput(ptr noundef %0, double noundef %1, ptr noundef %2, i32 noundef %3) #0 {
  %5 = alloca ptr, align 8
  %6 = alloca double, align 8
  %7 = alloca ptr, align 8
  %8 = alloca i32, align 4
  %9 = alloca double, align 8
  %10 = alloca double, align 8
  %11 = alloca i64, align 8
  %12 = alloca i64, align 8
  %13 = alloca i64, align 8
  %14 = alloca i64, align 8
  %15 = alloca i64, align 8
  %16 = alloca i64, align 8
  %17 = alloca i64, align 8
  %18 = alloca i64, align 8
  %19 = alloca i32, align 4
  %20 = alloca i32, align 4
  store ptr %0, ptr %5, align 8, !tbaa !11
  store double %1, ptr %6, align 8, !tbaa !27
  store ptr %2, ptr %7, align 8, !tbaa !12
  store i32 %3, ptr %8, align 4, !tbaa !4
  call void @llvm.lifetime.start.p0(i64 8, ptr %9) #7
  call void @llvm.lifetime.start.p0(i64 8, ptr %10) #7
  call void @llvm.lifetime.start.p0(i64 8, ptr %11) #7
  call void @llvm.lifetime.start.p0(i64 8, ptr %12) #7
  call void @llvm.lifetime.start.p0(i64 8, ptr %13) #7
  call void @llvm.lifetime.start.p0(i64 8, ptr %14) #7
  call void @llvm.lifetime.start.p0(i64 8, ptr %15) #7
  call void @llvm.lifetime.start.p0(i64 8, ptr %16) #7
  call void @llvm.lifetime.start.p0(i64 8, ptr %17) #7
  call void @llvm.lifetime.start.p0(i64 8, ptr %18) #7
  call void @llvm.lifetime.start.p0(i64 4, ptr %19) #7
  call void @llvm.lifetime.start.p0(i64 4, ptr %20) #7
  %21 = load ptr, ptr %7, align 8, !tbaa !12
  %22 = call double @N_VMaxNorm(ptr noundef %21)
  store double %22, ptr %10, align 8, !tbaa !27
  %23 = load ptr, ptr %5, align 8, !tbaa !11
  %24 = call i32 @IDAGetLastOrder(ptr noundef %23, ptr noundef %19)
  store i32 %24, ptr %20, align 4, !tbaa !4
  %25 = call i32 @check_retval(ptr noundef %20, ptr noundef @.str.44, i32 noundef 1)
  %26 = load ptr, ptr %5, align 8, !tbaa !11
  %27 = call i32 @IDAGetNumSteps(ptr noundef %26, ptr noundef %11)
  store i32 %27, ptr %20, align 4, !tbaa !4
  %28 = call i32 @check_retval(ptr noundef %20, ptr noundef @.str.45, i32 noundef 1)
  %29 = load ptr, ptr %5, align 8, !tbaa !11
  %30 = call i32 @IDAGetNumNonlinSolvIters(ptr noundef %29, ptr noundef %12)
  store i32 %30, ptr %20, align 4, !tbaa !4
  %31 = call i32 @check_retval(ptr noundef %20, ptr noundef @.str.46, i32 noundef 1)
  %32 = load ptr, ptr %5, align 8, !tbaa !11
  %33 = call i32 @IDAGetNumResEvals(ptr noundef %32, ptr noundef %14)
  store i32 %33, ptr %20, align 4, !tbaa !4
  %34 = call i32 @check_retval(ptr noundef %20, ptr noundef @.str.47, i32 noundef 1)
  %35 = load ptr, ptr %5, align 8, !tbaa !11
  %36 = call i32 @IDAGetLastStep(ptr noundef %35, ptr noundef %9)
  store i32 %36, ptr %20, align 4, !tbaa !4
  %37 = call i32 @check_retval(ptr noundef %20, ptr noundef @.str.48, i32 noundef 1)
  %38 = load ptr, ptr %5, align 8, !tbaa !11
  %39 = call i32 @IDAGetNumJtimesEvals(ptr noundef %38, ptr noundef %13)
  store i32 %39, ptr %20, align 4, !tbaa !4
  %40 = call i32 @check_retval(ptr noundef %20, ptr noundef @.str.49, i32 noundef 1)
  %41 = load ptr, ptr %5, align 8, !tbaa !11
  %42 = call i32 @IDAGetNumLinIters(ptr noundef %41, ptr noundef %16)
  store i32 %42, ptr %20, align 4, !tbaa !4
  %43 = call i32 @check_retval(ptr noundef %20, ptr noundef @.str.50, i32 noundef 1)
  %44 = load ptr, ptr %5, align 8, !tbaa !11
  %45 = call i32 @IDAGetNumLinResEvals(ptr noundef %44, ptr noundef %15)
  store i32 %45, ptr %20, align 4, !tbaa !4
  %46 = call i32 @check_retval(ptr noundef %20, ptr noundef @.str.51, i32 noundef 1)
  %47 = load ptr, ptr %5, align 8, !tbaa !11
  %48 = call i32 @IDAGetNumPrecEvals(ptr noundef %47, ptr noundef %17)
  store i32 %48, ptr %20, align 4, !tbaa !4
  %49 = call i32 @check_retval(ptr noundef %20, ptr noundef @.str.52, i32 noundef 1)
  %50 = load ptr, ptr %5, align 8, !tbaa !11
  %51 = call i32 @IDAGetNumPrecSolves(ptr noundef %50, ptr noundef %18)
  store i32 %51, ptr %20, align 4, !tbaa !4
  %52 = call i32 @check_retval(ptr noundef %20, ptr noundef @.str.53, i32 noundef 1)
  %53 = load double, ptr %6, align 8, !tbaa !27
  %54 = load double, ptr %10, align 8, !tbaa !27
  %55 = load i32, ptr %19, align 4, !tbaa !4
  %56 = load i64, ptr %11, align 8, !tbaa !28
  %57 = load i64, ptr %12, align 8, !tbaa !28
  %58 = load i64, ptr %13, align 8, !tbaa !28
  %59 = load i64, ptr %14, align 8, !tbaa !28
  %60 = load i64, ptr %15, align 8, !tbaa !28
  %61 = load double, ptr %9, align 8, !tbaa !27
  %62 = load i64, ptr %17, align 8, !tbaa !28
  %63 = load i64, ptr %18, align 8, !tbaa !28
  %64 = call i32 (ptr, ...) @printf(ptr noundef @.str.54, double noundef %53, double noundef %54, i32 noundef %55, i64 noundef %56, i64 noundef %57, i64 noundef %58, i64 noundef %59, i64 noundef %60, double noundef %61, i64 noundef %62, i64 noundef %63)
  call void @llvm.lifetime.end.p0(i64 4, ptr %20) #7
  call void @llvm.lifetime.end.p0(i64 4, ptr %19) #7
  call void @llvm.lifetime.end.p0(i64 8, ptr %18) #7
  call void @llvm.lifetime.end.p0(i64 8, ptr %17) #7
  call void @llvm.lifetime.end.p0(i64 8, ptr %16) #7
  call void @llvm.lifetime.end.p0(i64 8, ptr %15) #7
  call void @llvm.lifetime.end.p0(i64 8, ptr %14) #7
  call void @llvm.lifetime.end.p0(i64 8, ptr %13) #7
  call void @llvm.lifetime.end.p0(i64 8, ptr %12) #7
  call void @llvm.lifetime.end.p0(i64 8, ptr %11) #7
  call void @llvm.lifetime.end.p0(i64 8, ptr %10) #7
  call void @llvm.lifetime.end.p0(i64 8, ptr %9) #7
  ret void
}